target datalayout = "e-m:e-p270:32:32-p271:32:32-p272:64:64-i64:64-i128:128-f80:128-n8:16:32:64-S128"
target triple = "x86_64-pc-linux-gnu"

%struct._zend_smm_shared_globals = type { ptr, i32, i64, i64, i8, %struct._zend_shared_memory_state, ptr, ptr, i64 }
%struct._zend_shared_memory_state = type { ptr, i64 }
%struct._zend_shared_segment = type { i64, i64, i64, ptr }

@smm_shared_globals = hidden global ptr null, align 8

; Function Attrs: nounwind uwtable
define hidden zeroext i1 @zend_accel_in_shm(ptr noundef %0) #0 {
  %2 = alloca i1, align 1
  %3 = alloca ptr, align 8
  %4 = alloca i32, align 4
  store ptr %0, ptr %3, align 8
  %5 = load ptr, ptr @smm_shared_globals, align 8
  %6 = icmp ne ptr %5, null
  br i1 %6, label %8, label %7

7:                                                ; preds = %1
  store i1 false, ptr %2, align 1
  br label %55

8:                                                ; preds = %1
  store i32 0, ptr %4, align 4
  br label %9

9:                                                ; preds = %51, %8
  %10 = load i32, ptr %4, align 4
  %11 = load ptr, ptr @smm_shared_globals, align 8
  %12 = getelementptr inbounds %struct._zend_smm_shared_globals, ptr %11, i32 0, i32 1
  %13 = load i32, ptr %12, align 8
  %14 = icmp slt i32 %10, %13
  br i1 %14, label %15, label %54

15:                                               ; preds = %9
  %16 = load ptr, ptr %3, align 8
  %17 = load ptr, ptr @smm_shared_globals, align 8
  %18 = getelementptr inbounds %struct._zend_smm_shared_globals, ptr %17, i32 0, i32 0
  %19 = load ptr, ptr %18, align 8
  %20 = load i32, ptr %4, align 4
  %21 = sext i32 %20 to i64
  %22 = getelementptr inbounds ptr, ptr %19, i64 %21
  %23 = load ptr, ptr %22, align 8
  %24 = getelementptr inbounds %struct._zend_shared_segment, ptr %23, i32 0, i32 3
  %25 = load ptr, ptr %24, align 8
  %26 = icmp uge ptr %16, %25
  br i1 %26, label %27, label %50

27:                                               ; preds = %15
  %28 = load ptr, ptr %3, align 8
  %29 = load ptr, ptr @smm_shared_globals, align 8
  %30 = getelementptr inbounds %struct._zend_smm_shared_globals, ptr %29, i32 0, i32 0
  %31 = load ptr, ptr %30, align 8
  %32 = load i32, ptr %4, align 4
  %33 = sext i32 %32 to i64
  %34 = getelementptr inbounds ptr, ptr %31, i64 %33
  %35 = load ptr, ptr %34, align 8
  %36 = getelementptr inbounds %struct._zend_shared_segment, ptr %35, i32 0, i32 3
  %37 = load ptr, ptr %36, align 8
  %38 = load ptr, ptr @smm_shared_globals, align 8
  %39 = getelementptr inbounds %struct._zend_smm_shared_globals, ptr %38, i32 0, i32 0
  %40 = load ptr, ptr %39, align 8
  %41 = load i32, ptr %4, align 4
  %42 = sext i32 %41 to i64
  %43 = getelementptr inbounds ptr, ptr %40, i64 %42
  %44 = load ptr, ptr %43, align 8
  %45 = getelementptr inbounds %struct._zend_shared_segment, ptr %44, i32 0, i32 1
  %46 = load i64, ptr %45, align 8
  %47 = getelementptr inbounds i8, ptr %37, i64 %46
  %48 = icmp ult ptr %28, %47
  br i1 %48, label %49, label %50

49:                                               ; preds = %27
  store i1 true, ptr %2, align 1
  br label %55

50:                                               ; preds = %27, %15
  br label %51

51:                                               ; preds = %50
  %52 = load i32, ptr %4, align 4
  %53 = add nsw i32 %52, 1
  store i32 %53, ptr %4, align 4
  br label %9

54:                                               ; preds = %9
  store i1 false, ptr %2, align 1
  br label %55

55:                                               ; preds = %54, %49, %7
  %56 = load i1, ptr %2, align 1
  ret i1 %56
}