; Function Attrs: nofree norecurse nosync nounwind memory(read, inaccessiblemem: none) uwtable
define hidden noundef zeroext i1 @zend_accel_in_shm(ptr noundef readnone %0) local_unnamed_addr #17 {
  %2 = load ptr, ptr @smm_shared_globals, align 8
  %.not = icmp eq ptr %2, null
  br i1 %.not, label %.loopexit, label %.preheader

.preheader:                                       ; preds = %1
  %3 = getelementptr inbounds i8, ptr %2, i64 8
  %4 = load i32, ptr %3, align 8
  %5 = icmp sgt i32 %4, 0
  br i1 %5, label %.lr.ph, label %.loopexit

.lr.ph:                                           ; preds = %.preheader
  %6 = load ptr, ptr %2, align 8
  %wide.trip.count = zext nneg i32 %4 to i64
  br label %7

7:                                                ; preds = %.lr.ph, %17
  %indvars.iv = phi i64 [ 0, %.lr.ph ], [ %indvars.iv.next, %17 ]
  %8 = getelementptr inbounds ptr, ptr %6, i64 %indvars.iv
  %9 = load ptr, ptr %8, align 8
  %10 = getelementptr inbounds i8, ptr %9, i64 24
  %11 = load ptr, ptr %10, align 8
  %.not10 = icmp ugt ptr %11, %0
  br i1 %.not10, label %17, label %12

12:                                               ; preds = %7
  %13 = getelementptr inbounds i8, ptr %9, i64 8
  %14 = load i64, ptr %13, align 8
  %15 = getelementptr inbounds i8, ptr %11, i64 %14
  %16 = icmp ugt ptr %15, %0
  br i1 %16, label %.loopexit, label %17

17:                                               ; preds = %7, %12
  %indvars.iv.next = add nuw nsw i64 %indvars.iv, 1
  %exitcond.not = icmp eq i64 %indvars.iv.next, %wide.trip.count
  br i1 %exitcond.not, label %.loopexit, label %7

.loopexit:                                        ; preds = %12, %17, %.preheader, %1
  %.07 = phi i1 [ false, %1 ], [ false, %.preheader ], [ true, %12 ], [ false, %17 ]
  ret i1 %.07
}